; Function Attrs: nofree nounwind uwtable
define internal fastcc void @yy_pop_state(ptr noundef captures(none) %0) unnamed_addr #3 {
  %2 = getelementptr inbounds nuw i8, ptr %0, i64 84
  %3 = load i32, ptr %2, align 4, !tbaa !63
  %4 = add nsw i32 %3, -1
  store i32 %4, ptr %2, align 4, !tbaa !63
  %5 = icmp slt i32 %3, 1
  br i1 %5, label %6, label %7

6:                                                ; preds = %1
  tail call fastcc void @yy_fatal_error(ptr noundef nonnull @.str.15) #18
  unreachable

7:                                                ; preds = %1
  %8 = getelementptr inbounds nuw i8, ptr %0, i64 96
  %9 = load ptr, ptr %8, align 8, !tbaa !65
  %10 = zext nneg i32 %4 to i64
  %11 = getelementptr inbounds nuw i32, ptr %9, i64 %10
  %12 = load i32, ptr %11, align 4, !tbaa !60
  %13 = shl nsw i32 %12, 1
  %14 = or disjoint i32 %13, 1
  %15 = getelementptr inbounds nuw i8, ptr %0, i64 76
  store i32 %14, ptr %15, align 4, !tbaa !18
  ret void
}